; Function Attrs: nounwind uwtable
define dso_local i64 @inet_out(ptr noundef readonly captures(none) %0) local_unnamed_addr #0 {
  %2 = getelementptr inbounds nuw i8, ptr %0, i64 32
  %3 = load i64, ptr %2, align 8
  %4 = inttoptr i64 %3 to ptr
  %5 = tail call ptr @pg_detoast_datum_packed(ptr noundef %4) #14
  %6 = tail call fastcc ptr @network_out(ptr noundef %5, i1 noundef zeroext false)
  %7 = ptrtoint ptr %6 to i64
  ret i64 %7
}